(dp0
I1
S''
p1
sI2
g1
sI3
g1
sI4
(lp2
S'$str'
p3
asI5
(lp4
S'party'
p5
aS'12th'
p6
aS'may'
p7
asI6
g1
sI7
(lp8
S'birthday'
p9
aS'4th'
p10
aS'january'
p11
asI8
(lp12
S'brothers'
p13
aS'birthday'
p14
aS'26th'
p15
aS'september'
p16
asI9
g1
s.